target datalayout = "e-m:e-p270:32:32-p271:32:32-p272:64:64-i64:64-i128:128-f80:128-n8:16:32:64-S128"
target triple = "x86_64-pc-linux-gnu"

%class.CPUInformationInterface = type { ptr }
%class.CPUInformation = type { i32, i32, i32, ptr, ptr }

; Function Attrs: mustprogress nounwind uwtable
define linkonce_odr hidden void @_ZN14CPUInformation19set_cpu_descriptionEPKc(ptr noundef nonnull align 8 dereferenceable(32) %0, ptr noundef %1) #1 comdat align 2 {
  %3 = alloca ptr, align 8
  %4 = alloca ptr, align 8
  store ptr %0, ptr %3, align 8
  store ptr %1, ptr %4, align 8
  %5 = load ptr, ptr %3, align 8
  %6 = load ptr, ptr %4, align 8
  %7 = getelementptr inbounds %class.CPUInformation, ptr %5, i32 0, i32 3
  store ptr %6, ptr %7, align 8
  ret void
}

; Function Attrs: mustprogress nounwind uwtable
define linkonce_odr hidden void @_ZN14CPUInformation12set_cpu_nameEPKc(ptr noundef nonnull align 8 dereferenceable(32) %0, ptr noundef %1) #1 comdat align 2 {
  %3 = alloca ptr, align 8
  %4 = alloca ptr, align 8
  store ptr %0, ptr %3, align 8
  store ptr %1, ptr %4, align 8
  %5 = load ptr, ptr %3, align 8
  %6 = load ptr, ptr %4, align 8
  %7 = getelementptr inbounds %class.CPUInformation, ptr %5, i32 0, i32 4
  store ptr %6, ptr %7, align 8
  ret void
}

; Function Attrs: mustprogress nounwind uwtable
define linkonce_odr hidden void @_ZN14CPUInformation21set_number_of_socketsEi(ptr noundef nonnull align 8 dereferenceable(32) %0, i32 noundef %1) #1 comdat align 2 {
  %3 = alloca ptr, align 8
  %4 = alloca i32, align 4
  store ptr %0, ptr %3, align 8
  store i32 %1, ptr %4, align 4
  %5 = load ptr, ptr %3, align 8
  %6 = load i32, ptr %4, align 4
  %7 = getelementptr inbounds %class.CPUInformation, ptr %5, i32 0, i32 0
  store i32 %6, ptr %7, align 8
  ret void
}

; Function Attrs: mustprogress nounwind uwtable
define linkonce_odr hidden void @_ZN14CPUInformation19set_number_of_coresEi(ptr noundef nonnull align 8 dereferenceable(32) %0, i32 noundef %1) #1 comdat align 2 {
  %3 = alloca ptr, align 8
  %4 = alloca i32, align 4
  store ptr %0, ptr %3, align 8
  store i32 %1, ptr %4, align 4
  %5 = load ptr, ptr %3, align 8
  %6 = load i32, ptr %4, align 4
  %7 = getelementptr inbounds %class.CPUInformation, ptr %5, i32 0, i32 1
  store i32 %6, ptr %7, align 4
  ret void
}

; Function Attrs: mustprogress nounwind uwtable
define linkonce_odr hidden void @_ZN14CPUInformation30set_number_of_hardware_threadsEi(ptr noundef nonnull align 8 dereferenceable(32) %0, i32 noundef %1) #1 comdat align 2 {
  %3 = alloca ptr, align 8
  %4 = alloca i32, align 4
  store ptr %0, ptr %3, align 8
  store i32 %1, ptr %4, align 4
  %5 = load ptr, ptr %3, align 8
  %6 = load i32, ptr %4, align 4
  %7 = getelementptr inbounds %class.CPUInformation, ptr %5, i32 0, i32 2
  store i32 %6, ptr %7, align 8
  ret void
}

; Function Attrs: mustprogress nounwind uwtable
define linkonce_odr hidden void @_ZN14CPUInformationC2Ev(ptr noundef nonnull align 8 dereferenceable(32) %0) unnamed_addr #1 comdat align 2 {
  %2 = alloca ptr, align 8
  store ptr %0, ptr %2, align 8
  %3 = load ptr, ptr %2, align 8
  %4 = getelementptr inbounds %class.CPUInformation, ptr %3, i32 0, i32 0
  store i32 0, ptr %4, align 8
  %5 = getelementptr inbounds %class.CPUInformation, ptr %3, i32 0, i32 1
  store i32 0, ptr %5, align 4
  %6 = getelementptr inbounds %class.CPUInformation, ptr %3, i32 0, i32 2
  store i32 0, ptr %6, align 8
  %7 = getelementptr inbounds %class.CPUInformation, ptr %3, i32 0, i32 3
  store ptr null, ptr %7, align 8
  %8 = getelementptr inbounds %class.CPUInformation, ptr %3, i32 0, i32 4
  store ptr null, ptr %8, align 8
  ret void
}

; Function Attrs: mustprogress nounwind uwtable
define hidden noundef zeroext i1 @_ZN23CPUInformationInterface10initializeEv(ptr noundef nonnull align 8 dereferenceable(8) %0) #1 align 2 {
  %2 = alloca i64, align 8
  %3 = alloca i8, align 1
  %4 = alloca i64, align 8
  %5 = alloca ptr, align 8
  store ptr %0, ptr %5, align 8
  %6 = load ptr, ptr %5, align 8
  store i64 32, ptr %4, align 8
  %7 = load i64, ptr %4, align 8
  store i64 %7, ptr %2, align 8
  store i8 9, ptr %3, align 1
  %8 = load i64, ptr %2, align 8
  %9 = load i8, ptr %3, align 1
  %10 = call noundef ptr @_Z12AllocateHeapm8MEMFLAGSN17AllocFailStrategy13AllocFailEnumE(i64 noundef %8, i8 noundef zeroext %9, i32 noundef 0) #8
  call void @_ZN14CPUInformationC2Ev(ptr noundef nonnull align 8 dereferenceable(32) %10)
  %11 = getelementptr inbounds %class.CPUInformationInterface, ptr %6, i32 0, i32 0
  store ptr %10, ptr %11, align 8
  call void @_ZN10VM_Version26initialize_cpu_informationEv()
  %12 = getelementptr inbounds %class.CPUInformationInterface, ptr %6, i32 0, i32 0
  %13 = load ptr, ptr %12, align 8
  %14 = call noundef i32 @_ZN19Abstract_VM_Version17number_of_threadsEv()
  call void @_ZN14CPUInformation30set_number_of_hardware_threadsEi(ptr noundef nonnull align 8 dereferenceable(32) %13, i32 noundef %14)
  %15 = getelementptr inbounds %class.CPUInformationInterface, ptr %6, i32 0, i32 0
  %16 = load ptr, ptr %15, align 8
  %17 = call noundef i32 @_ZN19Abstract_VM_Version15number_of_coresEv()
  call void @_ZN14CPUInformation19set_number_of_coresEi(ptr noundef nonnull align 8 dereferenceable(32) %16, i32 noundef %17)
  %18 = getelementptr inbounds %class.CPUInformationInterface, ptr %6, i32 0, i32 0
  %19 = load ptr, ptr %18, align 8
  %20 = call noundef i32 @_ZN19Abstract_VM_Version17number_of_socketsEv()
  call void @_ZN14CPUInformation21set_number_of_socketsEi(ptr noundef nonnull align 8 dereferenceable(32) %19, i32 noundef %20)
  %21 = getelementptr inbounds %class.CPUInformationInterface, ptr %6, i32 0, i32 0
  %22 = load ptr, ptr %21, align 8
  %23 = call noundef ptr @_ZN19Abstract_VM_Version8cpu_nameEv()
  call void @_ZN14CPUInformation12set_cpu_nameEPKc(ptr noundef nonnull align 8 dereferenceable(32) %22, ptr noundef %23)
  %24 = getelementptr inbounds %class.CPUInformationInterface, ptr %6, i32 0, i32 0
  %25 = load ptr, ptr %24, align 8
  %26 = call noundef ptr @_ZN19Abstract_VM_Version15cpu_descriptionEv()
  call void @_ZN14CPUInformation19set_cpu_descriptionEPKc(ptr noundef nonnull align 8 dereferenceable(32) %25, ptr noundef %26)
  ret i1 true
}