; Function Attrs: mustprogress nounwind uwtable
define hidden noundef zeroext i1 @_ZN23CPUInformationInterface10initializeEv(ptr nocapture noundef nonnull align 8 dereferenceable(8) %0) local_unnamed_addr #0 align 2 {
  %2 = tail call noundef ptr @_Z12AllocateHeapm8MEMFLAGSN17AllocFailStrategy13AllocFailEnumE(i64 noundef 32, i8 noundef zeroext 9, i32 noundef 0) #18
  store i32 0, ptr %2, align 8
  %3 = getelementptr inbounds i8, ptr %2, i64 4
  store i32 0, ptr %3, align 4
  %4 = getelementptr inbounds i8, ptr %2, i64 8
  store i32 0, ptr %4, align 8
  %5 = getelementptr inbounds i8, ptr %2, i64 16
  tail call void @llvm.memset.p0.i64(ptr noundef nonnull align 8 dereferenceable(16) %5, i8 0, i64 16, i1 false)
  store ptr %2, ptr %0, align 8
  tail call void @_ZN10VM_Version26initialize_cpu_informationEv() #18
  %6 = load ptr, ptr %0, align 8
  %7 = tail call noundef i32 @_ZN19Abstract_VM_Version17number_of_threadsEv() #18
  %8 = getelementptr inbounds i8, ptr %6, i64 8
  store i32 %7, ptr %8, align 8
  %9 = load ptr, ptr %0, align 8
  %10 = tail call noundef i32 @_ZN19Abstract_VM_Version15number_of_coresEv() #18
  %11 = getelementptr inbounds i8, ptr %9, i64 4
  store i32 %10, ptr %11, align 4
  %12 = load ptr, ptr %0, align 8
  %13 = tail call noundef i32 @_ZN19Abstract_VM_Version17number_of_socketsEv() #18
  store i32 %13, ptr %12, align 8
  %14 = load ptr, ptr %0, align 8
  %15 = tail call noundef ptr @_ZN19Abstract_VM_Version8cpu_nameEv() #18
  %16 = getelementptr inbounds i8, ptr %14, i64 24
  store ptr %15, ptr %16, align 8
  %17 = load ptr, ptr %0, align 8
  %18 = tail call noundef ptr @_ZN19Abstract_VM_Version15cpu_descriptionEv() #18
  %19 = getelementptr inbounds i8, ptr %17, i64 16
  store ptr %18, ptr %19, align 8
  ret i1 true
}